target datalayout = "e-m:e-p270:32:32-p271:32:32-p272:64:64-i64:64-i128:128-f80:128-n8:16:32:64-S128"
target triple = "x86_64-pc-linux-gnu"

%struct.ParseContext_ = type { %struct.TokenData, i32, %union.SourceSpan, %union.SourceSpan, ptr, %struct.Lexer }
%struct.TokenData = type { ptr, i64, %union.anon.86 }
%union.anon.86 = type { %struct.anon.89 }
%struct.anon.89 = type { %struct.Int128_, i8 }
%struct.Int128_ = type { i64, i64 }
%union.SourceSpan = type { i64 }
%struct.Lexer = type { ptr, ptr, ptr, ptr, i32, i32, ptr, ptr, ptr, %struct.TokenData, %union.SourceSpan, i32, i32 }
%struct.Expr_ = type { ptr, %union.SourceSpan, i16, %union.anon.30 }
%union.anon.30 = type { %struct.ExprAnySwitch }
%struct.ExprAnySwitch = type { i8, %union.anon.32 }
%union.anon.32 = type { %struct.anon.33 }
%struct.anon.33 = type { ptr, %union.SourceSpan, ptr }
%struct.ExprIdentifierRaw = type { ptr, i8, ptr }

@poisoned_expr = external global ptr, align 8
@.str.33 = private unnamed_addr constant [47 x i8] c"Compile time identifiers may not be constants.\00", align 1

; Function Attrs: nounwind uwtable
define internal ptr @parse_ct_ident(ptr noundef %0, ptr noundef %1) #0 {
  %3 = alloca ptr, align 8
  %4 = alloca ptr, align 8
  %5 = alloca i32, align 4
  %6 = alloca ptr, align 8
  %7 = alloca ptr, align 8
  %8 = alloca ptr, align 8
  %9 = alloca ptr, align 8
  store ptr %0, ptr %7, align 8
  store ptr %1, ptr %8, align 8
  %10 = load ptr, ptr %7, align 8
  %11 = call zeroext i1 @try_consume(ptr noundef %10, i32 noundef 68)
  br i1 %11, label %12, label %18

12:                                               ; preds = %2
  %13 = load ptr, ptr %7, align 8
  %14 = getelementptr inbounds %struct.ParseContext_, ptr %13, i32 0, i32 3
  %15 = getelementptr inbounds %union.SourceSpan, ptr %14, i32 0, i32 0
  %16 = load i64, ptr %15, align 8
  call void (i64, ptr, ...) @sema_error_at(i64 %16, ptr noundef @.str.33)
  %17 = load ptr, ptr @poisoned_expr, align 8
  store ptr %17, ptr %6, align 8
  br label %34

18:                                               ; preds = %2
  %19 = load ptr, ptr %7, align 8
  %20 = getelementptr inbounds %struct.ParseContext_, ptr %19, i32 0, i32 2
  %21 = getelementptr inbounds %union.SourceSpan, ptr %20, i32 0, i32 0
  %22 = load i64, ptr %21, align 8
  %23 = call ptr @expr_new(i32 noundef 22, i64 %22)
  store ptr %23, ptr %9, align 8
  %24 = load ptr, ptr %7, align 8
  store ptr %24, ptr %3, align 8
  %25 = load ptr, ptr %3, align 8
  %26 = getelementptr inbounds %struct.TokenData, ptr %25, i32 0, i32 2
  %27 = load ptr, ptr %26, align 8
  %28 = load ptr, ptr %9, align 8
  %29 = getelementptr inbounds %struct.Expr_, ptr %28, i32 0, i32 3
  %30 = getelementptr inbounds %struct.ExprIdentifierRaw, ptr %29, i32 0, i32 0
  store ptr %27, ptr %30, align 8
  %31 = load ptr, ptr %7, align 8
  store ptr %31, ptr %4, align 8
  store i32 67, ptr %5, align 4
  %32 = load ptr, ptr %4, align 8
  call void @advance(ptr noundef %32) #5
  %33 = load ptr, ptr %9, align 8
  store ptr %33, ptr %6, align 8
  br label %34

34:                                               ; preds = %18, %12
  %35 = load ptr, ptr %6, align 8
  ret ptr %35
}