; Function Attrs: nounwind uwtable
define internal ptr @parse_ct_ident(ptr noundef %0, ptr nocapture readnone %1) #1 {
  %3 = tail call zeroext i1 @try_consume(ptr noundef %0, i32 noundef 68) #8
  br i1 %3, label %4, label %8

4:                                                ; preds = %2
  %5 = getelementptr inbounds i8, ptr %0, i64 56
  %6 = load i64, ptr %5, align 8
  tail call void (i64, ptr, ...) @sema_error_at(i64 %6, ptr noundef nonnull @.str.33) #8
  %7 = load ptr, ptr @poisoned_expr, align 8
  br label %15

8:                                                ; preds = %2
  %9 = getelementptr inbounds i8, ptr %0, i64 48
  %10 = load i64, ptr %9, align 8
  %11 = tail call ptr @expr_new(i32 noundef 22, i64 %10) #8
  %12 = getelementptr inbounds i8, ptr %0, i64 16
  %13 = load ptr, ptr %12, align 8
  %14 = getelementptr inbounds i8, ptr %11, i64 24
  store ptr %13, ptr %14, align 8
  tail call void @advance(ptr noundef %0) #8
  br label %15

15:                                               ; preds = %8, %4
  %.0 = phi ptr [ %7, %4 ], [ %11, %8 ]
  ret ptr %.0
}